target datalayout = "e-m:e-p270:32:32-p271:32:32-p272:64:64-i64:64-i128:128-f80:128-n8:16:32:64-S128"
target triple = "x86_64-pc-linux-gnu"

%"struct.faiss::AdditiveQuantizer" = type <{ %"struct.faiss::Quantizer", i64, %"class.std::vector", %"class.std::vector.0", %"class.std::vector", i64, i64, i64, i8, i8, i8, [5 x i8], %"struct.faiss::IndexFlat1D", %"class.std::vector.0", i64, i32, float, float, [4 x i8] }>
%"struct.faiss::Quantizer" = type { ptr, i64, i64 }
%"class.std::vector" = type { %"struct.std::_Vector_base" }
%"struct.std::_Vector_base" = type { %"struct.std::_Vector_base<unsigned long, std::allocator<unsigned long>>::_Vector_impl" }
%"struct.std::_Vector_base<unsigned long, std::allocator<unsigned long>>::_Vector_impl" = type { %"struct.std::_Vector_base<unsigned long, std::allocator<unsigned long>>::_Vector_impl_data" }
%"struct.std::_Vector_base<unsigned long, std::allocator<unsigned long>>::_Vector_impl_data" = type { ptr, ptr, ptr }
%"struct.faiss::IndexFlat1D" = type { %"struct.faiss::IndexFlatL2", i8, %"class.std::vector.10" }
%"struct.faiss::IndexFlatL2" = type { %"struct.faiss::IndexFlat", %"class.std::vector.0" }
%"struct.faiss::IndexFlat" = type { %"struct.faiss::IndexFlatCodes" }
%"struct.faiss::IndexFlatCodes" = type { %"struct.faiss::Index.base", i64, %"class.std::vector.5" }
%"struct.faiss::Index.base" = type <{ ptr, i32, [4 x i8], i64, i8, i8, [2 x i8], i32, float }>
%"class.std::vector.5" = type { %"struct.std::_Vector_base.6" }
%"struct.std::_Vector_base.6" = type { %"struct.std::_Vector_base<unsigned char, std::allocator<unsigned char>>::_Vector_impl" }
%"struct.std::_Vector_base<unsigned char, std::allocator<unsigned char>>::_Vector_impl" = type { %"struct.std::_Vector_base<unsigned char, std::allocator<unsigned char>>::_Vector_impl_data" }
%"struct.std::_Vector_base<unsigned char, std::allocator<unsigned char>>::_Vector_impl_data" = type { ptr, ptr, ptr }
%"class.std::vector.10" = type { %"struct.std::_Vector_base.11" }
%"struct.std::_Vector_base.11" = type { %"struct.std::_Vector_base<long, std::allocator<long>>::_Vector_impl" }
%"struct.std::_Vector_base<long, std::allocator<long>>::_Vector_impl" = type { %"struct.std::_Vector_base<long, std::allocator<long>>::_Vector_impl_data" }
%"struct.std::_Vector_base<long, std::allocator<long>>::_Vector_impl_data" = type { ptr, ptr, ptr }
%"class.std::vector.0" = type { %"struct.std::_Vector_base.1" }
%"struct.std::_Vector_base.1" = type { %"struct.std::_Vector_base<float, std::allocator<float>>::_Vector_impl" }
%"struct.std::_Vector_base<float, std::allocator<float>>::_Vector_impl" = type { %"struct.std::_Vector_base<float, std::allocator<float>>::_Vector_impl_data" }
%"struct.std::_Vector_base<float, std::allocator<float>>::_Vector_impl_data" = type { ptr, ptr, ptr }

; Function Attrs: mustprogress uwtable
define noundef i32 @_ZNK5faiss17AdditiveQuantizer12encode_qcintEf(ptr noundef nonnull align 8 dereferenceable(308) %0, float noundef %1) #0 align 2 {
  %3 = alloca ptr, align 8
  %4 = alloca float, align 4
  %5 = alloca i64, align 8
  store ptr %0, ptr %3, align 8
  store float %1, ptr %4, align 4
  %6 = load ptr, ptr %3, align 8
  %7 = getelementptr inbounds %"struct.faiss::AdditiveQuantizer", ptr %6, i32 0, i32 12
  call void @_ZNK5faiss5Index6assignElPKfPll(ptr noundef nonnull align 8 dereferenceable(36) %7, i64 noundef 1, ptr noundef %4, ptr noundef %5, i64 noundef 1)
  %8 = load i64, ptr %5, align 8
  %9 = trunc i64 %8 to i32
  ret i32 %9
}