; Function Attrs: mustprogress uwtable
define noundef i32 @_ZNK5faiss17AdditiveQuantizer12encode_qcintEf(ptr noundef nonnull align 8 dereferenceable(308) %0, float noundef %1) local_unnamed_addr #0 align 2 {
  %3 = alloca float, align 4
  %4 = alloca i64, align 8
  store float %1, ptr %3, align 4
  %5 = getelementptr inbounds i8, ptr %0, i64 136
  call void @_ZNK5faiss5Index6assignElPKfPll(ptr noundef nonnull align 8 dereferenceable(36) %5, i64 noundef 1, ptr noundef nonnull %3, ptr noundef nonnull %4, i64 noundef 1)
  %6 = load i64, ptr %4, align 8
  %7 = trunc i64 %6 to i32
  ret i32 %7
}